libibdm.so.1:Ibdm_Init
libibdm.so.1:_Z10CongReportP8IBFabricRNSt7__cxx1119basic_ostringstreamIcSt11char_traitsIcESaIcEEE
libibdm.so.1:_Z10CrdLoopDFSP8VChannel
libibdm.so.1:_Z10ibnl_errorPc
libibdm.so.1:_Z10ibnl_parsev
libibdm.so.1:_Z11CongCleanupP8IBFabric
libibdm.so.1:_Z12CredLoopModeii
libibdm.so.1:_Z12ibnlMakeNode10IBNodeTypeiPcS0_
libibdm.so.1:_Z12new_IBFabricv
libibdm.so.1:_Z13CongTrackPathP8IBFabrictt
libibdm.so.1:_Z13yy_scan_bytesPKci
libibdm.so.1:_Z14CrdLoopAnalyzeP8IBFabric
libibdm.so.1:_Z14CrdLoopCleanupP8IBFabric
libibdm.so.1:_Z14CrdLoopPrepareP8IBFabric
libibdm.so.1:_Z14ibdmUseCoutLogv
libibdm.so.1:_Z14ibnlMakeSystemRNSt7__cxx114listIPcSaIS1_EEE
libibdm.so.1:_Z14yy_init_bufferP15yy_buffer_stateP8_IO_FILE
libibdm.so.1:_Z14yy_scan_bufferPcj
libibdm.so.1:_Z14yy_scan_stringPKc
libibdm.so.1:_Z15FatTreeAnalysisP8IBFabric
libibdm.so.1:_Z15SubnMgtOsmRouteP8IBFabric
libibdm.so.1:_Z15TraceRouteByLFTP8IBFabricjjPjPNSt7__cxx114listIP6IBNodeSaIS5_EEE
libibdm.so.1:_Z15delete_IBFabricP8IBFabric
libibdm.so.1:_Z15isBwdPathUnusedP6IBNodesRSt3mapIS0_PsSt4lessIS0_ESaISt4pairIKS0_S2_EEESA_SA_Rs
libibdm.so.1:_Z15isFwdPathUnusedP6IBNodesRSt3mapIS0_PsSt4lessIS0_ESaISt4pairIKS0_S2_EEE
libibdm.so.1:_Z15yy_flush_bufferP15yy_buffer_state
libibdm.so.1:_Z16CrdLoopFindLoopsP8IBFabric
libibdm.so.1:_Z16TopoMatchFabricsP8IBFabricS0_PKcimPPc
libibdm.so.1:_Z16TraceDRPathRouteP6IBPortNSt7__cxx114listIiSaIiEEE
libibdm.so.1:_Z16ibdmFatTreeRouteP8IBFabricNSt7__cxx114listIP6IBNodeSaIS4_EEE
libibdm.so.1:_Z16ibnlParseSysDefsP19IBSystemsCollectionPKc
libibdm.so.1:_Z16yy_create_bufferP8_IO_FILEi
libibdm.so.1:_Z16yy_delete_bufferP15yy_buffer_state
libibdm.so.1:_Z17SubnMgtAssignLidsP6IBPortj
libibdm.so.1:_Z17SubnMgtCheckMCGrpP8IBFabrict
libibdm.so.1:_Z17SubnMgtFatTreeBwdP6IBNodetj
libibdm.so.1:_Z17SubnMgtFatTreeFwdP6IBNodet
libibdm.so.1:_Z17ibnlMakeSubsystemPcS_
libibdm.so.1:_Z18getLidsThroughPortP6IBNodeiRNSt7__cxx114listIsSaIsEEE
libibdm.so.1:_Z18ibdmUseInternalLogv
libibdm.so.1:_Z19SubnMgtFatTreeRouteP8IBFabric
libibdm.so.1:_Z19TraceRouteByMinHopsP8IBFabricjj
libibdm.so.1:_Z19cleanUpNodeMarkingsRSt3mapIP6IBNodePsSt4lessIS1_ESaISt4pairIKS1_S2_EEE
libibdm.so.1:_Z19findPathThroughPortP6IBNodeiRsS1_RSt3mapIS0_PsSt4lessIS0_ESaISt4pairIKS0_S3_EEESB_SB_
libibdm.so.1:_Z19yy_switch_to_bufferP15yy_buffer_state
libibdm.so.1:_Z20LinkCoverageAnalysisP8IBFabricNSt7__cxx114listIP6IBNodeSaIS4_EEE
libibdm.so.1:_Z20theSysDefsCollectionv
libibdm.so.1:_Z20yy_load_buffer_statev
libibdm.so.1:_Z21CrdLoopMarkRouteByLFTP8IBFabricjj
libibdm.so.1:_Z21ibdmGetFabricIdxByPtrP8IBFabric
libibdm.so.1:_Z21ibdmGetFabricPtrByIdxj
libibdm.so.1:_Z21ibdmRankFabricByRootsP8IBFabricNSt7__cxx114listIP6IBNodeSaIS4_EEE
libibdm.so.1:_Z22SubnMgtUpDnBFSFromPortjP8IBFabricRSt3mapIP6IBNodeiSt4lessIS3_ESaISt4pairIKS3_iEEE
libibdm.so.1:_Z22SubnMgtUpDnIsLegelStepP6IBNodeS0_
libibdm.so.1:_Z22SubnMgtVerifyAllRoutesP8IBFabric
libibdm.so.1:_Z22dumpPortTargetLidTableP6IBNodeRSt3mapIS0_PsSt4lessIS0_ESaISt4pairIKS0_S2_EEE
libibdm.so.1:_Z22ibdmGetObjPtrByTclNameP7Tcl_ObjPPv
libibdm.so.1:_Z22ibdmGetObjTclNameByPtrP7Tcl_ObjPvPc
libibdm.so.1:_Z22ibnlMakeNodeToNodeConniPKcPcS0_i
libibdm.so.1:_Z22ibnlMakeNodeToPortConniPKcS0_S0_
libibdm.so.1:_Z22ibnlRecordModificationPcS_
libibdm.so.1:_Z22markPathUsedAndCoveredP8IBFabricssRSt3mapIP6IBNodePsSt4lessIS3_ESaISt4pairIKS3_S4_EEESC_
libibdm.so.1:_Z23SubnFindPathCommonalityPNSt7__cxx114listIP6IBNodeSaIS2_EEES5_PiS6_
libibdm.so.1:_Z23SubnMgtCalcMinHopTablesP8IBFabric
libibdm.so.1:_Z23SubnMgtOsmEnhancedRouteP8IBFabric
libibdm.so.1:_Z23getFabricSwitchesByRankP8IBFabricRSt3mapIP6IBNodeiSt4lessIS3_ESaISt4pairIKS3_iEEERNSt7__cxx114listIS3_SaIS3_EEE
libibdm.so.1:_Z24SubnMgtCheckFabricMCGrpsP8IBFabric
libibdm.so.1:_Z24SubnMgtFindTreeRootNodesB5cxx11P8IBFabric
libibdm.so.1:_Z24TopoMatchFabricsFromEdgeP8IBFabricS0_PPc
libibdm.so.1:_Z24ibnlMakeSubInstAttributePcS_S_
libibdm.so.1:_Z25CrdLoopConnectMcastDependP8IBFabric
libibdm.so.1:_Z25CrdLoopConnectUcastDependP8IBFabric
libibdm.so.1:_Z25FatTreeRouteByPermutationP8IBFabricPKcS2_
libibdm.so.1:_Z25SubnMgtCalcUpDnMinHopTblsP8IBFabricRSt3mapIP6IBNodeiSt4lessIS3_ESaISt4pairIKS3_iEEE
libibdm.so.1:_Z25getPinTargetLidTableIndexP8IBFabricij
libibdm.so.1:_Z26ibdmGetAndClearInternalLogv
libibdm.so.1:_Z27SubnRankFabricNodesByRegexpP8IBFabricPKcRSt3mapIP6IBNodeiSt4lessIS5_ESaISt4pairIKS5_iEEE
libibdm.so.1:_Z27TopoMergeDiscAndSpecFabricsP8IBFabricS0_S0_
libibdm.so.1:_Z27ibnlMakeSubsystemToPortConnPKcS0_S0_S0_
libibdm.so.1:_Z27initFdbForwardPortLidTablesP8IBFabricRSt3mapIP6IBNodePsSt4lessIS3_ESaISt4pairIKS3_S4_EEESC_SC_
libibdm.so.1:_Z28SubnMgtFindRootNodesByMinHopB5cxx11P8IBFabric
libibdm.so.1:_Z28SubnMgtVerifyAllCaToCaRoutesP8IBFabric
libibdm.so.1:_Z28traceRouteByLFTAndMarkInPinsP8IBFabricP6IBPortS2_jRSt3mapIP6IBNodePsSt4lessIS5_ESaISt4pairIKS5_S6_EEE
libibdm.so.1:_Z29SubnReportNonUpDownCa2CaPathsP8IBFabricRSt3mapIP6IBNodeiSt4lessIS3_ESaISt4pairIKS3_iEEE
libibdm.so.1:_Z29ibdmReportNonUpDownCa2CaPathsP8IBFabricNSt7__cxx114listIP6IBNodeSaIS4_EEE
libibdm.so.1:_Z30SubnRankFabricNodesByRootNodesP8IBFabricNSt7__cxx114listIP6IBNodeSaIS4_EEERSt3mapIS4_iSt4lessIS4_ESaISt4pairIKS4_iEEE
libibdm.so.1:_Z30cleanupFdbForwardPortLidTablesP8IBFabricRSt3mapIP6IBNodePsSt4lessIS3_ESaISt4pairIKS3_S4_EEESC_SC_
libibdm.so.1:_Z30orderDLidsBySumOfFwdAndBwdHopsP6IBNodeRNSt7__cxx114listIsSaIsEEEPs
libibdm.so.1:_Z32ibnlMakeSubsystemToSubsystemConnPcS_S_S_S_
libibdm.so.1:_Z33SubnReportCA2CAPathsThroughSWPortP6IBPort
libibdm.so.1:_Z39SubnMgtCalcUpDnMinHopTblsByRootNodesRexP8IBFabricPKc
libibdm.so.1:_Z43SubnReportNonUpDownMulticastGroupCa2CaPathsP8IBFabricRSt3mapIP6IBNodeiSt4lessIS3_ESaISt4pairIKS3_iEEEt
libibdm.so.1:_Z43ibdmCheckFabricMCGrpsForCreditLoopPotentialP8IBFabricNSt7__cxx114listIP6IBNodeSaIS4_EEE
libibdm.so.1:_Z45SubnReportNonUpDownMulticastGroupFromCaSwitchP8IBFabricP6IBNodeRSt3mapIS2_iSt4lessIS2_ESaISt4pairIKS2_iEEEt
libibdm.so.1:_Z46SubnMgtCheckFabricMCGrpsForCreditLoopPotentialP8IBFabricRSt3mapIP6IBNodeiSt4lessIS3_ESaISt4pairIKS3_iEEE
libibdm.so.1:_Z8CongDumpP8IBFabricRNSt7__cxx1119basic_ostringstreamIcSt11char_traitsIcESaIcEEE
libibdm.so.1:_Z8CongInitP8IBFabric
libibdm.so.1:_Z8CongZeroP8IBFabric
libibdm.so.1:_Z8ibnl_lexv
libibdm.so.1:_Z9yyrestartP8_IO_FILE
libibdm.so.1:_ZN11FatTreeNode10numParentsEv
libibdm.so.1:_ZN11FatTreeNode11numChildrenEv
libibdm.so.1:_ZN11FatTreeNode14numChildGroupsEv
libibdm.so.1:_ZN11FatTreeNode15numParentGroupsEv
libibdm.so.1:_ZN11FatTreeNode9goingDownEi
libibdm.so.1:_ZN11FatTreeNodeC1EP6IBNode
libibdm.so.1:_ZN11FatTreeNodeC2EP6IBNode
libibdm.so.1:_ZN19IBSystemsCollection10makeSystemEP8IBFabricNSt7__cxx1112basic_stringIcSt11char_traitsIcESaIcEEES7_St3mapIS7_S7_7strlessSaISt4pairIKS7_S7_EEE
libibdm.so.1:_ZN19IBSystemsCollection12makeSysNodesEP8IBFabricP8IBSystemP8IBSysDefNSt7__cxx1112basic_stringIcSt11char_traitsIcESaIcEEERSt3mapISB_SB_7strlessSaISt4pairIKSB_SB_EEE
libibdm.so.1:_ZN19IBSystemsCollection13getInstSysDefEP8IBSysDefP9IBSysInstNSt7__cxx1112basic_stringIcSt11char_traitsIcESaIcEEERSt3mapIS9_S9_7strlessSaISt4pairIKS9_S9_EEE
libibdm.so.1:_ZN19IBSystemsCollection13parseIBSysdefENSt7__cxx1112basic_stringIcSt11char_traitsIcESaIcEEE
libibdm.so.1:_ZN19IBSystemsCollection20parseSysDefsFromDirsENSt7__cxx114listINS0_12basic_stringIcSt11char_traitsIcESaIcEEESaIS6_EEE
libibdm.so.1:_ZN19IBSystemsCollection24makeNodePortBySysPortDefEP8IBSystemP8IBSysDefP12IBSysPortDefNSt7__cxx1112basic_stringIcSt11char_traitsIcESaIcEEERSt3mapISB_SB_7strlessSaISt4pairIKSB_SB_EEE
libibdm.so.1:_ZN19IBSystemsCollection29makeNodePortByInstAndPortNameEP8IBSystemP8IBSysDefP9IBSysInstNSt7__cxx1112basic_stringIcSt11char_traitsIcESaIcEEESB_RSt3mapISB_SB_7strlessSaISt4pairIKSB_SB_EEE
libibdm.so.1:_ZN19IBSystemsCollection29makeSubSystemToSubSystemConnsEP8IBSystemP8IBSysDefNSt7__cxx1112basic_stringIcSt11char_traitsIcESaIcEEERSt3mapIS9_S9_7strlessSaISt4pairIKS9_S9_EEE
libibdm.so.1:_ZN19IBSystemsCollection32makeNodePortBySubSysInstPortNameEP8IBSystemP8IBSysDefNSt7__cxx1112basic_stringIcSt11char_traitsIcESaIcEEES9_S9_RSt3mapIS9_S9_7strlessSaISt4pairIKS9_S9_EEE
libibdm.so.1:_ZN19IBSystemsCollection4dumpEv
libibdm.so.1:_ZN4edge9isMatchedEv
libibdm.so.1:_ZN6IBNode11repHopTableEv
libibdm.so.1:_ZN6IBNode12getPSLForLidEj
libibdm.so.1:_ZN6IBNode12setPSLForLidEjjh
libibdm.so.1:_ZN6IBNode15getFirstPortLidEv
libibdm.so.1:_ZN6IBNode16getLFTPortForLidEj
libibdm.so.1:_ZN6IBNode16setLFTPortForLidEjj
libibdm.so.1:_ZN6IBNode17setMFTPortForMLidEjj
libibdm.so.1:_ZN6IBNode18getFirstMinHopPortEj
libibdm.so.1:_ZN6IBNode18getMFTPortsForMLidB5cxx11Ej
libibdm.so.1:_ZN6IBNode7getHopsEP6IBPortj
libibdm.so.1:_ZN6IBNode7getSLVLEjjh
libibdm.so.1:_ZN6IBNode7setHopsEP6IBPortji
libibdm.so.1:_ZN6IBNode7setSLVLEjjhh
libibdm.so.1:_ZN6IBNode8guid_setEm
libibdm.so.1:_ZN6IBNodeC1ENSt7__cxx1112basic_stringIcSt11char_traitsIcESaIcEEEP8IBFabricP8IBSystem10IBNodeTypei
libibdm.so.1:_ZN6IBNodeC2ENSt7__cxx1112basic_stringIcSt11char_traitsIcESaIcEEEP8IBFabricP8IBSystem10IBNodeTypei
libibdm.so.1:_ZN6IBNodeD1Ev
libibdm.so.1:_ZN6IBNodeD2Ev
libibdm.so.1:_ZN6IBPort10disconnectEi
libibdm.so.1:_ZN6IBPort7connectEPS_11IBLinkWidth11IBLinkSpeed
libibdm.so.1:_ZN6IBPort7getNameB5cxx11Ev
libibdm.so.1:_ZN6IBPort8guid_setEm
libibdm.so.1:_ZN6IBPortC1EP6IBNodei
libibdm.so.1:_ZN6IBPortC2EP6IBNodei
libibdm.so.1:_ZN6IBPortD1Ev
libibdm.so.1:_ZN6IBPortD2Ev
libibdm.so.1:_ZN6vertex11setInLayersEb
libibdm.so.1:_ZN6vertex12flipPredEdgeEi
libibdm.so.1:_ZN6vertex13delConnectionEP4edge
libibdm.so.1:_ZN6vertex13popConnectionEv
libibdm.so.1:_ZN6vertex14pushConnectionEP4edge
libibdm.so.1:_ZN6vertex15resetLayersInfoEv
libibdm.so.1:_ZN6vertex16addPartnerLayersERNSt7__cxx114listIPS_SaIS2_EEE
libibdm.so.1:_ZN6vertex20addNonPartnersLayersERNSt7__cxx114listIPS_SaIS2_EEE
libibdm.so.1:_ZN6vertex5matchEv
libibdm.so.1:_ZN6vertex6unLinkERNSt7__cxx114listIPS_SaIS2_EEE
libibdm.so.1:_ZN6vertexC1Ei5side_i
libibdm.so.1:_ZN6vertexC2Ei5side_i
libibdm.so.1:_ZN6vertexD1Ev
libibdm.so.1:_ZN6vertexD2Ev
libibdm.so.1:_ZN7FatTree12dumpHcaOrderEv
libibdm.so.1:_ZN7FatTree12getTuppleStrB5cxx11ESt6vectorIhSaIhEE
libibdm.so.1:_ZN7FatTree13getFreeTuppleESt6vectorIhSaIhEEj
libibdm.so.1:_ZN7FatTree15forceLftUpWardsEP11FatTreeNodetSt6vectorIiSaIiEE
libibdm.so.1:_ZN7FatTree15trackConnectionEP11FatTreeNodeSt6vectorIhSaIhEEjjjj
libibdm.so.1:_ZN7FatTree16assignLftUpWardsEP11FatTreeNodetii
libibdm.so.1:_ZN7FatTree18assignLftDownWardsEP11FatTreeNodetiii
libibdm.so.1:_ZN7FatTree19extractCoefficientsEv
libibdm.so.1:_ZN7FatTree20getFatTreeNodeByNodeEP6IBNode
libibdm.so.1:_ZN7FatTree24getLowestLevelSwitchNodeEv
libibdm.so.1:_ZN7FatTree4dumpEv
libibdm.so.1:_ZN7FatTree5routeEv
libibdm.so.1:_ZN7FatTree9permRouteESt6vectorINSt7__cxx1112basic_stringIcSt11char_traitsIcESaIcEEESaIS6_EES8_
libibdm.so.1:_ZN7FatTreeC1EP8IBFabric
libibdm.so.1:_ZN7FatTreeC2EP8IBFabric
libibdm.so.1:_ZN8IBFabric10makeSystemENSt7__cxx1112basic_stringIcSt11char_traitsIcESaIcEEES5_S5_
libibdm.so.1:_ZN8IBFabric11dumpNameMapEPKc
libibdm.so.1:_ZN8IBFabric11parseCablesENSt7__cxx1112basic_stringIcSt11char_traitsIcESaIcEEE
libibdm.so.1:_ZN8IBFabric12dumpTopologyEPKcS1_
libibdm.so.1:_ZN8IBFabric12parseFdbFileENSt7__cxx1112basic_stringIcSt11char_traitsIcESaIcEEE
libibdm.so.1:_ZN8IBFabric12parsePSLFileENSt7__cxx1112basic_stringIcSt11char_traitsIcESaIcEEE
libibdm.so.1:_ZN8IBFabric13getNodeByGuidEm
libibdm.so.1:_ZN8IBFabric13getPortByGuidEm
libibdm.so.1:_ZN8IBFabric13parseSLVLFileENSt7__cxx1112basic_stringIcSt11char_traitsIcESaIcEEE
libibdm.so.1:_ZN8IBFabric13parseTopologyENSt7__cxx1112basic_stringIcSt11char_traitsIcESaIcEEE
libibdm.so.1:_ZN8IBFabric14getNodesByTypeB5cxx11E10IBNodeType
libibdm.so.1:_ZN8IBFabric14parseMCFdbFileENSt7__cxx1112basic_stringIcSt11char_traitsIcESaIcEEE
libibdm.so.1:_ZN8IBFabric15getSystemByGuidEm
libibdm.so.1:_ZN8IBFabric15parseSubnetLineEPc
libibdm.so.1:_ZN8IBFabric16parseSubnetLinksENSt7__cxx1112basic_stringIcSt11char_traitsIcESaIcEEE
libibdm.so.1:_ZN8IBFabric17makeGenericSystemENSt7__cxx1112basic_stringIcSt11char_traitsIcESaIcEEE
libibdm.so.1:_ZN8IBFabric25setNodeGuidsByNameMapFileEPKc
libibdm.so.1:_ZN8IBFabric4dumpERSo
libibdm.so.1:_ZN8IBFabric7addLinkENSt7__cxx1112basic_stringIcSt11char_traitsIcESaIcEEEimmmiiiS5_iiiS5_immmiiiS5_iii11IBLinkWidth11IBLinkSpeed
libibdm.so.1:_ZN8IBFabric7getNodeENSt7__cxx1112basic_stringIcSt11char_traitsIcESaIcEEE
libibdm.so.1:_ZN8IBFabric8addCableENSt7__cxx1112basic_stringIcSt11char_traitsIcESaIcEEES5_S5_S5_S5_S5_11IBLinkWidth11IBLinkSpeed
libibdm.so.1:_ZN8IBFabric8makeNodeENSt7__cxx1112basic_stringIcSt11char_traitsIcESaIcEEEP8IBSystem10IBNodeTypej
libibdm.so.1:_ZN8IBFabric9getSystemENSt7__cxx1112basic_stringIcSt11char_traitsIcESaIcEEE
libibdm.so.1:_ZN8IBFabricD1Ev
libibdm.so.1:_ZN8IBFabricD2Ev
libibdm.so.1:_ZN8IBSystem10cfg2VectorERKNSt7__cxx1112basic_stringIcSt11char_traitsIcESaIcEEERSt6vectorIS5_SaIS5_EEi
libibdm.so.1:_ZN8IBSystem10getSysPortENSt7__cxx1112basic_stringIcSt11char_traitsIcESaIcEEE
libibdm.so.1:_ZN8IBSystem11makeSysPortENSt7__cxx1112basic_stringIcSt11char_traitsIcESaIcEEE
libibdm.so.1:_ZN8IBSystem11removeBoardENSt7__cxx1112basic_stringIcSt11char_traitsIcESaIcEEE
libibdm.so.1:_ZN8IBSystem18getAllSysPortNamesB5cxx11Ev
libibdm.so.1:_ZN8IBSystem24getSysPortNodePortByNameENSt7__cxx1112basic_stringIcSt11char_traitsIcESaIcEEE
libibdm.so.1:_ZN8IBSystem8dumpIBNLEPKcRNSt7__cxx1112basic_stringIcSt11char_traitsIcESaIcEEE
libibdm.so.1:_ZN8IBSystem8guid_setEm
libibdm.so.1:_ZN8IBSystemC1ENSt7__cxx1112basic_stringIcSt11char_traitsIcESaIcEEEP8IBFabricS5_
libibdm.so.1:_ZN8IBSystemC2ENSt7__cxx1112basic_stringIcSt11char_traitsIcESaIcEEEP8IBFabricS5_
libibdm.so.1:_ZN8IBSystemD0Ev
libibdm.so.1:_ZN8IBSystemD1Ev
libibdm.so.1:_ZN8IBSystemD2Ev
libibdm.so.1:_ZN8RouteSys12pushRequestsESt6vectorIiSaIiEE
libibdm.so.1:_ZN8RouteSys5myPowEii
libibdm.so.1:_ZN8RouteSys9doRoutingERSt6vectorIS0_IiSaIiEESaIS2_EE
libibdm.so.1:_ZN8RouteSysC1Eiii
libibdm.so.1:_ZN8RouteSysC2Eiii
libibdm.so.1:_ZN8RouteSysD1Ev
libibdm.so.1:_ZN8RouteSysD2Ev
libibdm.so.1:_ZN9Bipartite11setIterNextEv
libibdm.so.1:_ZN9Bipartite12connectNodesEii9inputData
libibdm.so.1:_ZN9Bipartite12maximalMatchEv
libibdm.so.1:_ZN9Bipartite12maximumMatchEv
libibdm.so.1:_ZN9Bipartite12setIterFirstEv
libibdm.so.1:_ZN9Bipartite7augmentERNSt7__cxx114listIP6vertexSaIS3_EEE
libibdm.so.1:_ZN9Bipartite9decomposeEPPS_S1_
libibdm.so.1:_ZN9Bipartite9getReqDatEv
libibdm.so.1:_ZN9BipartiteC1Eii
libibdm.so.1:_ZN9BipartiteC2Eii
libibdm.so.1:_ZN9BipartiteD1Ev
libibdm.so.1:_ZN9BipartiteD2Ev
libibdm.so.1:_ZN9IBSysPort10disconnectEi
libibdm.so.1:_ZN9IBSysPort7connectEPS_11IBLinkWidth11IBLinkSpeed
libibdm.so.1:_ZN9IBSysPortC1ENSt7__cxx1112basic_stringIcSt11char_traitsIcESaIcEEEP8IBSystem
libibdm.so.1:_ZN9IBSysPortC2ENSt7__cxx1112basic_stringIcSt11char_traitsIcESaIcEEEP8IBSystem
libibdm.so.1:_ZN9IBSysPortD1Ev
libibdm.so.1:_ZN9IBSysPortD2Ev
libibdm.so.1:_ZNK6vertex10getPartnerEv
libibdm.so.1:_ZNK6vertex11getInLayersEv
libibdm.so.1:_ZNK6vertex14getPredecessorEv
libibdm.so.1:_ZNK6vertex5getIDEv
libibdm.so.1:_ZNK6vertex7getSideEv
libibdm.so.1:_ZNK9Bipartite8getRadixEv
libibdm.so.1:yywrap
libibdmcom.so.1:_Z10CongReportP8IBFabricRNSt7__cxx1119basic_ostringstreamIcSt11char_traitsIcESaIcEEE
libibdmcom.so.1:_Z10CrdLoopDFSP8VChannel
libibdmcom.so.1:_Z10ibnl_errorPc
libibdmcom.so.1:_Z10ibnl_parsev
libibdmcom.so.1:_Z11CongCleanupP8IBFabric
libibdmcom.so.1:_Z12CredLoopModeii
libibdmcom.so.1:_Z12ibnlMakeNode10IBNodeTypeiPcS0_
libibdmcom.so.1:_Z13CongTrackPathP8IBFabrictt
libibdmcom.so.1:_Z13yy_scan_bytesPKci
libibdmcom.so.1:_Z14CrdLoopAnalyzeP8IBFabric
libibdmcom.so.1:_Z14CrdLoopCleanupP8IBFabric
libibdmcom.so.1:_Z14CrdLoopPrepareP8IBFabric
libibdmcom.so.1:_Z14ibdmUseCoutLogv
libibdmcom.so.1:_Z14ibnlMakeSystemRNSt7__cxx114listIPcSaIS1_EEE
libibdmcom.so.1:_Z14yy_init_bufferP15yy_buffer_stateP8_IO_FILE
libibdmcom.so.1:_Z14yy_scan_bufferPcj
libibdmcom.so.1:_Z14yy_scan_stringPKc
libibdmcom.so.1:_Z15FatTreeAnalysisP8IBFabric
libibdmcom.so.1:_Z15SubnMgtOsmRouteP8IBFabric
libibdmcom.so.1:_Z15TraceRouteByLFTP8IBFabricjjPjPNSt7__cxx114listIP6IBNodeSaIS5_EEE
libibdmcom.so.1:_Z15isBwdPathUnusedP6IBNodesRSt3mapIS0_PsSt4lessIS0_ESaISt4pairIKS0_S2_EEESA_SA_Rs
libibdmcom.so.1:_Z15isFwdPathUnusedP6IBNodesRSt3mapIS0_PsSt4lessIS0_ESaISt4pairIKS0_S2_EEE
libibdmcom.so.1:_Z15yy_flush_bufferP15yy_buffer_state
libibdmcom.so.1:_Z16CrdLoopFindLoopsP8IBFabric
libibdmcom.so.1:_Z16TopoMatchFabricsP8IBFabricS0_PKcimPPc
libibdmcom.so.1:_Z16TraceDRPathRouteP6IBPortNSt7__cxx114listIiSaIiEEE
libibdmcom.so.1:_Z16ibnlParseSysDefsP19IBSystemsCollectionPKc
libibdmcom.so.1:_Z16yy_create_bufferP8_IO_FILEi
libibdmcom.so.1:_Z16yy_delete_bufferP15yy_buffer_state
libibdmcom.so.1:_Z17SubnMgtAssignLidsP6IBPortj
libibdmcom.so.1:_Z17SubnMgtCheckMCGrpP8IBFabrict
libibdmcom.so.1:_Z17SubnMgtFatTreeBwdP6IBNodetj
libibdmcom.so.1:_Z17SubnMgtFatTreeFwdP6IBNodet
libibdmcom.so.1:_Z17ibnlMakeSubsystemPcS_
libibdmcom.so.1:_Z18getLidsThroughPortP6IBNodeiRNSt7__cxx114listIsSaIsEEE
libibdmcom.so.1:_Z18ibdmUseInternalLogv
libibdmcom.so.1:_Z19SubnMgtFatTreeRouteP8IBFabric
libibdmcom.so.1:_Z19TraceRouteByMinHopsP8IBFabricjj
libibdmcom.so.1:_Z19cleanUpNodeMarkingsRSt3mapIP6IBNodePsSt4lessIS1_ESaISt4pairIKS1_S2_EEE
libibdmcom.so.1:_Z19findPathThroughPortP6IBNodeiRsS1_RSt3mapIS0_PsSt4lessIS0_ESaISt4pairIKS0_S3_EEESB_SB_
libibdmcom.so.1:_Z19yy_switch_to_bufferP15yy_buffer_state
libibdmcom.so.1:_Z20LinkCoverageAnalysisP8IBFabricNSt7__cxx114listIP6IBNodeSaIS4_EEE
libibdmcom.so.1:_Z20theSysDefsCollectionv
libibdmcom.so.1:_Z20yy_load_buffer_statev
libibdmcom.so.1:_Z21CrdLoopMarkRouteByLFTP8IBFabricjj
libibdmcom.so.1:_Z22SubnMgtUpDnBFSFromPortjP8IBFabricRSt3mapIP6IBNodeiSt4lessIS3_ESaISt4pairIKS3_iEEE
libibdmcom.so.1:_Z22SubnMgtUpDnIsLegelStepP6IBNodeS0_
libibdmcom.so.1:_Z22SubnMgtVerifyAllRoutesP8IBFabric
libibdmcom.so.1:_Z22dumpPortTargetLidTableP6IBNodeRSt3mapIS0_PsSt4lessIS0_ESaISt4pairIKS0_S2_EEE
libibdmcom.so.1:_Z22ibnlMakeNodeToNodeConniPKcPcS0_i
libibdmcom.so.1:_Z22ibnlMakeNodeToPortConniPKcS0_S0_
libibdmcom.so.1:_Z22ibnlRecordModificationPcS_
libibdmcom.so.1:_Z22markPathUsedAndCoveredP8IBFabricssRSt3mapIP6IBNodePsSt4lessIS3_ESaISt4pairIKS3_S4_EEESC_
libibdmcom.so.1:_Z23SubnFindPathCommonalityPNSt7__cxx114listIP6IBNodeSaIS2_EEES5_PiS6_
libibdmcom.so.1:_Z23SubnMgtCalcMinHopTablesP8IBFabric
libibdmcom.so.1:_Z23SubnMgtOsmEnhancedRouteP8IBFabric
libibdmcom.so.1:_Z23getFabricSwitchesByRankP8IBFabricRSt3mapIP6IBNodeiSt4lessIS3_ESaISt4pairIKS3_iEEERNSt7__cxx114listIS3_SaIS3_EEE
libibdmcom.so.1:_Z24SubnMgtCheckFabricMCGrpsP8IBFabric
libibdmcom.so.1:_Z24SubnMgtFindTreeRootNodesB5cxx11P8IBFabric
libibdmcom.so.1:_Z24TopoMatchFabricsFromEdgeP8IBFabricS0_PPc
libibdmcom.so.1:_Z24ibnlMakeSubInstAttributePcS_S_
libibdmcom.so.1:_Z25CrdLoopConnectMcastDependP8IBFabric
libibdmcom.so.1:_Z25CrdLoopConnectUcastDependP8IBFabric
libibdmcom.so.1:_Z25FatTreeRouteByPermutationP8IBFabricPKcS2_
libibdmcom.so.1:_Z25SubnMgtCalcUpDnMinHopTblsP8IBFabricRSt3mapIP6IBNodeiSt4lessIS3_ESaISt4pairIKS3_iEEE
libibdmcom.so.1:_Z25getPinTargetLidTableIndexP8IBFabricij
libibdmcom.so.1:_Z26ibdmGetAndClearInternalLogv
libibdmcom.so.1:_Z27SubnRankFabricNodesByRegexpP8IBFabricPKcRSt3mapIP6IBNodeiSt4lessIS5_ESaISt4pairIKS5_iEEE
libibdmcom.so.1:_Z27TopoMergeDiscAndSpecFabricsP8IBFabricS0_S0_
libibdmcom.so.1:_Z27ibnlMakeSubsystemToPortConnPKcS0_S0_S0_
libibdmcom.so.1:_Z27initFdbForwardPortLidTablesP8IBFabricRSt3mapIP6IBNodePsSt4lessIS3_ESaISt4pairIKS3_S4_EEESC_SC_
libibdmcom.so.1:_Z28SubnMgtFindRootNodesByMinHopB5cxx11P8IBFabric
libibdmcom.so.1:_Z28SubnMgtVerifyAllCaToCaRoutesP8IBFabric
libibdmcom.so.1:_Z28traceRouteByLFTAndMarkInPinsP8IBFabricP6IBPortS2_jRSt3mapIP6IBNodePsSt4lessIS5_ESaISt4pairIKS5_S6_EEE
libibdmcom.so.1:_Z29SubnReportNonUpDownCa2CaPathsP8IBFabricRSt3mapIP6IBNodeiSt4lessIS3_ESaISt4pairIKS3_iEEE
libibdmcom.so.1:_Z30SubnRankFabricNodesByRootNodesP8IBFabricNSt7__cxx114listIP6IBNodeSaIS4_EEERSt3mapIS4_iSt4lessIS4_ESaISt4pairIKS4_iEEE
libibdmcom.so.1:_Z30cleanupFdbForwardPortLidTablesP8IBFabricRSt3mapIP6IBNodePsSt4lessIS3_ESaISt4pairIKS3_S4_EEESC_SC_
libibdmcom.so.1:_Z30orderDLidsBySumOfFwdAndBwdHopsP6IBNodeRNSt7__cxx114listIsSaIsEEEPs
libibdmcom.so.1:_Z32ibnlMakeSubsystemToSubsystemConnPcS_S_S_S_
libibdmcom.so.1:_Z33SubnReportCA2CAPathsThroughSWPortP6IBPort
libibdmcom.so.1:_Z39SubnMgtCalcUpDnMinHopTblsByRootNodesRexP8IBFabricPKc
libibdmcom.so.1:_Z43SubnReportNonUpDownMulticastGroupCa2CaPathsP8IBFabricRSt3mapIP6IBNodeiSt4lessIS3_ESaISt4pairIKS3_iEEEt
libibdmcom.so.1:_Z45SubnReportNonUpDownMulticastGroupFromCaSwitchP8IBFabricP6IBNodeRSt3mapIS2_iSt4lessIS2_ESaISt4pairIKS2_iEEEt
libibdmcom.so.1:_Z46SubnMgtCheckFabricMCGrpsForCreditLoopPotentialP8IBFabricRSt3mapIP6IBNodeiSt4lessIS3_ESaISt4pairIKS3_iEEE
libibdmcom.so.1:_Z8CongDumpP8IBFabricRNSt7__cxx1119basic_ostringstreamIcSt11char_traitsIcESaIcEEE
libibdmcom.so.1:_Z8CongInitP8IBFabric
libibdmcom.so.1:_Z8CongZeroP8IBFabric
libibdmcom.so.1:_Z8ibnl_lexv
libibdmcom.so.1:_Z9yyrestartP8_IO_FILE
libibdmcom.so.1:_ZN11FatTreeNode10numParentsEv
libibdmcom.so.1:_ZN11FatTreeNode11numChildrenEv
libibdmcom.so.1:_ZN11FatTreeNode14numChildGroupsEv
libibdmcom.so.1:_ZN11FatTreeNode15numParentGroupsEv
libibdmcom.so.1:_ZN11FatTreeNode9goingDownEi
libibdmcom.so.1:_ZN11FatTreeNodeC1EP6IBNode
libibdmcom.so.1:_ZN11FatTreeNodeC2EP6IBNode
libibdmcom.so.1:_ZN19IBSystemsCollection10makeSystemEP8IBFabricNSt7__cxx1112basic_stringIcSt11char_traitsIcESaIcEEES7_St3mapIS7_S7_7strlessSaISt4pairIKS7_S7_EEE
libibdmcom.so.1:_ZN19IBSystemsCollection12makeSysNodesEP8IBFabricP8IBSystemP8IBSysDefNSt7__cxx1112basic_stringIcSt11char_traitsIcESaIcEEERSt3mapISB_SB_7strlessSaISt4pairIKSB_SB_EEE
libibdmcom.so.1:_ZN19IBSystemsCollection13getInstSysDefEP8IBSysDefP9IBSysInstNSt7__cxx1112basic_stringIcSt11char_traitsIcESaIcEEERSt3mapIS9_S9_7strlessSaISt4pairIKS9_S9_EEE
libibdmcom.so.1:_ZN19IBSystemsCollection13parseIBSysdefENSt7__cxx1112basic_stringIcSt11char_traitsIcESaIcEEE
libibdmcom.so.1:_ZN19IBSystemsCollection20parseSysDefsFromDirsENSt7__cxx114listINS0_12basic_stringIcSt11char_traitsIcESaIcEEESaIS6_EEE
libibdmcom.so.1:_ZN19IBSystemsCollection24makeNodePortBySysPortDefEP8IBSystemP8IBSysDefP12IBSysPortDefNSt7__cxx1112basic_stringIcSt11char_traitsIcESaIcEEERSt3mapISB_SB_7strlessSaISt4pairIKSB_SB_EEE
libibdmcom.so.1:_ZN19IBSystemsCollection29makeNodePortByInstAndPortNameEP8IBSystemP8IBSysDefP9IBSysInstNSt7__cxx1112basic_stringIcSt11char_traitsIcESaIcEEESB_RSt3mapISB_SB_7strlessSaISt4pairIKSB_SB_EEE
libibdmcom.so.1:_ZN19IBSystemsCollection29makeSubSystemToSubSystemConnsEP8IBSystemP8IBSysDefNSt7__cxx1112basic_stringIcSt11char_traitsIcESaIcEEERSt3mapIS9_S9_7strlessSaISt4pairIKS9_S9_EEE
libibdmcom.so.1:_ZN19IBSystemsCollection32makeNodePortBySubSysInstPortNameEP8IBSystemP8IBSysDefNSt7__cxx1112basic_stringIcSt11char_traitsIcESaIcEEES9_S9_RSt3mapIS9_S9_7strlessSaISt4pairIKS9_S9_EEE
libibdmcom.so.1:_ZN19IBSystemsCollection4dumpEv
libibdmcom.so.1:_ZN4edge9isMatchedEv
libibdmcom.so.1:_ZN6IBNode11repHopTableEv
libibdmcom.so.1:_ZN6IBNode12getPSLForLidEj
libibdmcom.so.1:_ZN6IBNode12setPSLForLidEjjh
libibdmcom.so.1:_ZN6IBNode15getFirstPortLidEv
libibdmcom.so.1:_ZN6IBNode16getLFTPortForLidEj
libibdmcom.so.1:_ZN6IBNode16setLFTPortForLidEjj
libibdmcom.so.1:_ZN6IBNode17setMFTPortForMLidEjj
libibdmcom.so.1:_ZN6IBNode18getFirstMinHopPortEj
libibdmcom.so.1:_ZN6IBNode18getMFTPortsForMLidB5cxx11Ej
libibdmcom.so.1:_ZN6IBNode7getHopsEP6IBPortj
libibdmcom.so.1:_ZN6IBNode7getSLVLEjjh
libibdmcom.so.1:_ZN6IBNode7setHopsEP6IBPortji
libibdmcom.so.1:_ZN6IBNode7setSLVLEjjhh
libibdmcom.so.1:_ZN6IBNode8guid_setEm
libibdmcom.so.1:_ZN6IBNodeC1ENSt7__cxx1112basic_stringIcSt11char_traitsIcESaIcEEEP8IBFabricP8IBSystem10IBNodeTypei
libibdmcom.so.1:_ZN6IBNodeC2ENSt7__cxx1112basic_stringIcSt11char_traitsIcESaIcEEEP8IBFabricP8IBSystem10IBNodeTypei
libibdmcom.so.1:_ZN6IBNodeD1Ev
libibdmcom.so.1:_ZN6IBNodeD2Ev
libibdmcom.so.1:_ZN6IBPort10disconnectEi
libibdmcom.so.1:_ZN6IBPort7connectEPS_11IBLinkWidth11IBLinkSpeed
libibdmcom.so.1:_ZN6IBPort7getNameB5cxx11Ev
libibdmcom.so.1:_ZN6IBPort8guid_setEm
libibdmcom.so.1:_ZN6IBPortC1EP6IBNodei
libibdmcom.so.1:_ZN6IBPortC2EP6IBNodei
libibdmcom.so.1:_ZN6IBPortD1Ev
libibdmcom.so.1:_ZN6IBPortD2Ev
libibdmcom.so.1:_ZN6vertex11setInLayersEb
libibdmcom.so.1:_ZN6vertex12flipPredEdgeEi
libibdmcom.so.1:_ZN6vertex13delConnectionEP4edge
libibdmcom.so.1:_ZN6vertex13popConnectionEv
libibdmcom.so.1:_ZN6vertex14pushConnectionEP4edge
libibdmcom.so.1:_ZN6vertex15resetLayersInfoEv
libibdmcom.so.1:_ZN6vertex16addPartnerLayersERNSt7__cxx114listIPS_SaIS2_EEE
libibdmcom.so.1:_ZN6vertex20addNonPartnersLayersERNSt7__cxx114listIPS_SaIS2_EEE
libibdmcom.so.1:_ZN6vertex5matchEv
libibdmcom.so.1:_ZN6vertex6unLinkERNSt7__cxx114listIPS_SaIS2_EEE
libibdmcom.so.1:_ZN6vertexC1Ei5side_i
libibdmcom.so.1:_ZN6vertexC2Ei5side_i
libibdmcom.so.1:_ZN6vertexD1Ev
libibdmcom.so.1:_ZN6vertexD2Ev
libibdmcom.so.1:_ZN7FatTree12dumpHcaOrderEv
libibdmcom.so.1:_ZN7FatTree12getTuppleStrB5cxx11ESt6vectorIhSaIhEE
libibdmcom.so.1:_ZN7FatTree13getFreeTuppleESt6vectorIhSaIhEEj
libibdmcom.so.1:_ZN7FatTree15forceLftUpWardsEP11FatTreeNodetSt6vectorIiSaIiEE
libibdmcom.so.1:_ZN7FatTree15trackConnectionEP11FatTreeNodeSt6vectorIhSaIhEEjjjj
libibdmcom.so.1:_ZN7FatTree16assignLftUpWardsEP11FatTreeNodetii
libibdmcom.so.1:_ZN7FatTree18assignLftDownWardsEP11FatTreeNodetiii
libibdmcom.so.1:_ZN7FatTree19extractCoefficientsEv
libibdmcom.so.1:_ZN7FatTree20getFatTreeNodeByNodeEP6IBNode
libibdmcom.so.1:_ZN7FatTree24getLowestLevelSwitchNodeEv
libibdmcom.so.1:_ZN7FatTree4dumpEv
libibdmcom.so.1:_ZN7FatTree5routeEv
libibdmcom.so.1:_ZN7FatTree9permRouteESt6vectorINSt7__cxx1112basic_stringIcSt11char_traitsIcESaIcEEESaIS6_EES8_
libibdmcom.so.1:_ZN7FatTreeC1EP8IBFabric
libibdmcom.so.1:_ZN7FatTreeC2EP8IBFabric
libibdmcom.so.1:_ZN8IBFabric10makeSystemENSt7__cxx1112basic_stringIcSt11char_traitsIcESaIcEEES5_S5_
libibdmcom.so.1:_ZN8IBFabric11dumpNameMapEPKc
libibdmcom.so.1:_ZN8IBFabric11parseCablesENSt7__cxx1112basic_stringIcSt11char_traitsIcESaIcEEE
libibdmcom.so.1:_ZN8IBFabric12dumpTopologyEPKcS1_
libibdmcom.so.1:_ZN8IBFabric12parseFdbFileENSt7__cxx1112basic_stringIcSt11char_traitsIcESaIcEEE
libibdmcom.so.1:_ZN8IBFabric12parsePSLFileENSt7__cxx1112basic_stringIcSt11char_traitsIcESaIcEEE
libibdmcom.so.1:_ZN8IBFabric13getNodeByGuidEm
libibdmcom.so.1:_ZN8IBFabric13getPortByGuidEm
libibdmcom.so.1:_ZN8IBFabric13parseSLVLFileENSt7__cxx1112basic_stringIcSt11char_traitsIcESaIcEEE
libibdmcom.so.1:_ZN8IBFabric13parseTopologyENSt7__cxx1112basic_stringIcSt11char_traitsIcESaIcEEE
libibdmcom.so.1:_ZN8IBFabric14getNodesByTypeB5cxx11E10IBNodeType
libibdmcom.so.1:_ZN8IBFabric14parseMCFdbFileENSt7__cxx1112basic_stringIcSt11char_traitsIcESaIcEEE
libibdmcom.so.1:_ZN8IBFabric15getSystemByGuidEm
libibdmcom.so.1:_ZN8IBFabric15parseSubnetLineEPc
libibdmcom.so.1:_ZN8IBFabric16parseSubnetLinksENSt7__cxx1112basic_stringIcSt11char_traitsIcESaIcEEE
libibdmcom.so.1:_ZN8IBFabric17makeGenericSystemENSt7__cxx1112basic_stringIcSt11char_traitsIcESaIcEEE
libibdmcom.so.1:_ZN8IBFabric25setNodeGuidsByNameMapFileEPKc
libibdmcom.so.1:_ZN8IBFabric4dumpERSo
libibdmcom.so.1:_ZN8IBFabric7addLinkENSt7__cxx1112basic_stringIcSt11char_traitsIcESaIcEEEimmmiiiS5_iiiS5_immmiiiS5_iii11IBLinkWidth11IBLinkSpeed
libibdmcom.so.1:_ZN8IBFabric7getNodeENSt7__cxx1112basic_stringIcSt11char_traitsIcESaIcEEE
libibdmcom.so.1:_ZN8IBFabric8addCableENSt7__cxx1112basic_stringIcSt11char_traitsIcESaIcEEES5_S5_S5_S5_S5_11IBLinkWidth11IBLinkSpeed
libibdmcom.so.1:_ZN8IBFabric8makeNodeENSt7__cxx1112basic_stringIcSt11char_traitsIcESaIcEEEP8IBSystem10IBNodeTypej
libibdmcom.so.1:_ZN8IBFabric9getSystemENSt7__cxx1112basic_stringIcSt11char_traitsIcESaIcEEE
libibdmcom.so.1:_ZN8IBFabricD1Ev
libibdmcom.so.1:_ZN8IBFabricD2Ev
libibdmcom.so.1:_ZN8IBSystem10cfg2VectorERKNSt7__cxx1112basic_stringIcSt11char_traitsIcESaIcEEERSt6vectorIS5_SaIS5_EEi
libibdmcom.so.1:_ZN8IBSystem10getSysPortENSt7__cxx1112basic_stringIcSt11char_traitsIcESaIcEEE
libibdmcom.so.1:_ZN8IBSystem11makeSysPortENSt7__cxx1112basic_stringIcSt11char_traitsIcESaIcEEE
libibdmcom.so.1:_ZN8IBSystem11removeBoardENSt7__cxx1112basic_stringIcSt11char_traitsIcESaIcEEE
libibdmcom.so.1:_ZN8IBSystem18getAllSysPortNamesB5cxx11Ev
libibdmcom.so.1:_ZN8IBSystem24getSysPortNodePortByNameENSt7__cxx1112basic_stringIcSt11char_traitsIcESaIcEEE
libibdmcom.so.1:_ZN8IBSystem8dumpIBNLEPKcRNSt7__cxx1112basic_stringIcSt11char_traitsIcESaIcEEE
libibdmcom.so.1:_ZN8IBSystem8guid_setEm
libibdmcom.so.1:_ZN8IBSystemC1ENSt7__cxx1112basic_stringIcSt11char_traitsIcESaIcEEEP8IBFabricS5_
libibdmcom.so.1:_ZN8IBSystemC2ENSt7__cxx1112basic_stringIcSt11char_traitsIcESaIcEEEP8IBFabricS5_
libibdmcom.so.1:_ZN8IBSystemD0Ev
libibdmcom.so.1:_ZN8IBSystemD1Ev
libibdmcom.so.1:_ZN8IBSystemD2Ev
libibdmcom.so.1:_ZN8RouteSys12pushRequestsESt6vectorIiSaIiEE
libibdmcom.so.1:_ZN8RouteSys5myPowEii
libibdmcom.so.1:_ZN8RouteSys9doRoutingERSt6vectorIS0_IiSaIiEESaIS2_EE
libibdmcom.so.1:_ZN8RouteSysC1Eiii
libibdmcom.so.1:_ZN8RouteSysC2Eiii
libibdmcom.so.1:_ZN8RouteSysD1Ev
libibdmcom.so.1:_ZN8RouteSysD2Ev
libibdmcom.so.1:_ZN9Bipartite11setIterNextEv
libibdmcom.so.1:_ZN9Bipartite12connectNodesEii9inputData
libibdmcom.so.1:_ZN9Bipartite12maximalMatchEv
libibdmcom.so.1:_ZN9Bipartite12maximumMatchEv
libibdmcom.so.1:_ZN9Bipartite12setIterFirstEv
libibdmcom.so.1:_ZN9Bipartite7augmentERNSt7__cxx114listIP6vertexSaIS3_EEE
libibdmcom.so.1:_ZN9Bipartite9decomposeEPPS_S1_
libibdmcom.so.1:_ZN9Bipartite9getReqDatEv
libibdmcom.so.1:_ZN9BipartiteC1Eii
libibdmcom.so.1:_ZN9BipartiteC2Eii
libibdmcom.so.1:_ZN9BipartiteD1Ev
libibdmcom.so.1:_ZN9BipartiteD2Ev
libibdmcom.so.1:_ZN9IBSysPort10disconnectEi
libibdmcom.so.1:_ZN9IBSysPort7connectEPS_11IBLinkWidth11IBLinkSpeed
libibdmcom.so.1:_ZN9IBSysPortC1ENSt7__cxx1112basic_stringIcSt11char_traitsIcESaIcEEEP8IBSystem
libibdmcom.so.1:_ZN9IBSysPortC2ENSt7__cxx1112basic_stringIcSt11char_traitsIcESaIcEEEP8IBSystem
libibdmcom.so.1:_ZN9IBSysPortD1Ev
libibdmcom.so.1:_ZN9IBSysPortD2Ev
libibdmcom.so.1:_ZNK6vertex10getPartnerEv
libibdmcom.so.1:_ZNK6vertex11getInLayersEv
libibdmcom.so.1:_ZNK6vertex14getPredecessorEv
libibdmcom.so.1:_ZNK6vertex5getIDEv
libibdmcom.so.1:_ZNK6vertex7getSideEv
libibdmcom.so.1:_ZNK9Bipartite8getRadixEv
libibdmcom.so.1:yywrap
libibmscli.so.1:_Z13ibms_dump_msgPK16_ibms_client_msg
libibmscli.so.1:_Z16ibms_get_msg_strB5cxx11PK16_ibms_client_msg
libibmscli.so.1:_Z17ibms_get_resp_strPK14_ibms_response
libibmscli.so.1:_Z19__ibms_dump_cap_msgB5cxx11PK16_ibms_client_msg
libibmscli.so.1:_Z19__ibms_dump_mad_msgB5cxx11PK16_ibms_client_msg
libibmscli.so.1:_Z20__ibms_dump_bind_msgB5cxx11PK16_ibms_client_msg
libibmscli.so.1:_Z20__ibms_dump_conn_msgB5cxx11PK16_ibms_client_msg
libibmscli.so.1:_Z22ibms_get_node_info_strB5cxx11P13_ib_node_info
libibmscli.so.1:_Z22ibms_get_port_info_strB5cxx11P13_ib_port_info
libibmscli.so.1:_Z23__ibms_dump_disconn_msgB5cxx11PK16_ibms_client_msg
libibmscli.so.1:_Z23ibms_get_mad_header_strB5cxx117_ib_mad
libibmscli.so.1:_Z26__ibms_get_sim_host_n_portPcRt
libibmscli.so.1:_Z6msgMgriPSo
libibmscli.so.1:_ZN10msgManager10msg2stringB5cxx11E6msgObjii
libibmscli.so.1:_ZN10msgManager14getNextMessageB5cxx11Ev
libibmscli.so.1:_ZN10msgManager15outstandingMsgsB5cxx11Ei
libibmscli.so.1:_ZN10msgManager19nullOutstandingMsgsEv
libibmscli.so.1:_ZN10msgManager19outstandingMsgCountEi
libibmscli.so.1:_ZN10msgManager3regEcNSt7__cxx1112basic_stringIcSt11char_traitsIcESaIcEEES5_S5_
libibmscli.so.1:_ZN10msgManager4sendEiNSt7__cxx1112basic_stringIcSt11char_traitsIcESaIcEEEi6msgStrS6_S6_S6_S6_S6_
libibmscli.so.1:_ZN16IBMSClientInMsgs17proccessClientMsgEiiPcRiPS0_
libibmscli.so.1:_ZN6msgStrC1EPKc
libibmscli.so.1:_ZN6msgStrC1Ed
libibmscli.so.1:_ZN6msgStrC1Ef
libibmscli.so.1:_ZN6msgStrC1Ei
libibmscli.so.1:_ZN6msgStrC1Ej
libibmscli.so.1:_ZN6msgStrC1El
libibmscli.so.1:_ZN6msgStrC1Em
libibmscli.so.1:_ZN6msgStrC1Et
libibmscli.so.1:_ZN6msgStrC1Ey
libibmscli.so.1:_ZN6msgStrC2EPKc
libibmscli.so.1:_ZN6msgStrC2Ed
libibmscli.so.1:_ZN6msgStrC2Ef
libibmscli.so.1:_ZN6msgStrC2Ei
libibmscli.so.1:_ZN6msgStrC2Ej
libibmscli.so.1:_ZN6msgStrC2El
libibmscli.so.1:_ZN6msgStrC2Em
libibmscli.so.1:_ZN6msgStrC2Et
libibmscli.so.1:_ZN6msgStrC2Ey
libibmscli.so.1:_ZN7msgTypeC1EcRNSt7__cxx1112basic_stringIcSt11char_traitsIcESaIcEEES5_S5_
libibmscli.so.1:_ZN7msgTypeC2EcRNSt7__cxx1112basic_stringIcSt11char_traitsIcESaIcEEES5_S5_
libibmscli.so.1:_ZN9GenClient7sendMsgEiPcRiS0_
libibmscli.so.1:_ZN9GenClientC1EPcti
libibmscli.so.1:_ZN9GenClientC2EPcti
libibmscli.so.1:_ZN9GenClientD1Ev
libibmscli.so.1:_ZN9GenClientD2Ev
libibmscli.so.1:_ZN9GenServer16clientThreadMainEPv
libibmscli.so.1:_ZN9GenServer16serverThreadMainEPv
libibmscli.so.1:_ZN9GenServer17proccessClientMsgEiiPcRiPS0_
libibmscli.so.1:_ZN9GenServer18createServerSocketEt
libibmscli.so.1:_ZN9GenServerC1Eti
libibmscli.so.1:_ZN9GenServerC2Eti
libibmscli.so.1:_ZN9GenServerD0Ev
libibmscli.so.1:_ZN9GenServerD1Ev
libibmscli.so.1:_ZN9GenServerD2Ev
libibmscli.so.1:ibms_bind
libibmscli.so.1:ibms_connect
libibmscli.so.1:ibms_disconnect
libibmscli.so.1:ibms_send
libibmscli.so.1:ibms_set_cap
libibsysapi.so.1:ibSysGetDrPathsToNode
libibsysapi.so.1:ibSysGetNodePortOnSysPort
libibsysapi.so.1:ibSysGetNodePortSysPort
libibsysapi.so.1:ibSysGetNodes
libibsysapi.so.1:ibSysGetRemoteNodePort
libibsysapi.so.1:ibSysInit
